target datalayout = "e-m:e-p270:32:32-p271:32:32-p272:64:64-i64:64-i128:128-f80:128-n8:16:32:64-S128"
target triple = "x86_64-pc-linux-gnu"

@.str.54 = private unnamed_addr constant [40 x i8] c"https://cdn.proj.org/fr_ign_ntf_r93.tif\00", align 1
@.str.55 = private unnamed_addr constant [4 x i8] c"0-1\00", align 1
@_ZN12_GLOBAL__N_115networkAccessOKE = internal global i8 0, align 1
@stderr = external global ptr, align 8
@.str.56 = private unnamed_addr constant [27 x i8] c"network access not working\00", align 1

; Function Attrs: mustprogress uwtable
define internal void @_ZN12_GLOBAL__N_129networking_initial_check_Test8TestBodyEv(ptr noundef nonnull align 8 dereferenceable(16) %0) unnamed_addr #6 align 2 {
  %2 = alloca ptr, align 8
  %3 = alloca ptr, align 8
  %4 = alloca i32, align 4
  %5 = alloca i64, align 8
  store ptr %0, ptr %2, align 8, !tbaa !97
  call void @llvm.lifetime.start.p0(i64 8, ptr %3) #3
  %6 = call ptr @curl_easy_init()
  store ptr %6, ptr %3, align 8, !tbaa !24
  %7 = load ptr, ptr %3, align 8, !tbaa !24
  %8 = icmp ne ptr %7, null
  br i1 %8, label %10, label %9

9:                                                ; preds = %1
  store i32 1, ptr %4, align 4
  br label %31

10:                                               ; preds = %1
  %11 = load ptr, ptr %3, align 8, !tbaa !24
  %12 = call i32 (ptr, i32, ...) @curl_easy_setopt(ptr noundef %11, i32 noundef 10002, ptr noundef @.str.54)
  %13 = load ptr, ptr %3, align 8, !tbaa !24
  %14 = call i32 (ptr, i32, ...) @curl_easy_setopt(ptr noundef %13, i32 noundef 10007, ptr noundef @.str.55)
  %15 = load ptr, ptr %3, align 8, !tbaa !24
  %16 = call i32 (ptr, i32, ...) @curl_easy_setopt(ptr noundef %15, i32 noundef 20011, ptr noundef @_ZN12_GLOBAL__N_120noop_curl_write_funcEPvmmS0_)
  %17 = load ptr, ptr %3, align 8, !tbaa !24
  %18 = call i32 @curl_easy_perform(ptr noundef %17)
  call void @llvm.lifetime.start.p0(i64 8, ptr %5) #3
  store i64 0, ptr %5, align 8, !tbaa !84
  %19 = load ptr, ptr %3, align 8, !tbaa !24
  %20 = call i32 (ptr, i32, ...) @curl_easy_getinfo(ptr noundef %19, i32 noundef 2097154, ptr noundef %5)
  %21 = load ptr, ptr %3, align 8, !tbaa !24
  call void @curl_easy_cleanup(ptr noundef %21)
  %22 = load i64, ptr %5, align 8, !tbaa !84
  %23 = icmp eq i64 %22, 206
  %24 = zext i1 %23 to i8
  store i8 %24, ptr @_ZN12_GLOBAL__N_115networkAccessOKE, align 1, !tbaa !99
  %25 = load i8, ptr @_ZN12_GLOBAL__N_115networkAccessOKE, align 1, !tbaa !99, !range !101, !noundef !102
  %26 = trunc i8 %25 to i1
  br i1 %26, label %30, label %27

27:                                               ; preds = %10
  %28 = load ptr, ptr @stderr, align 8, !tbaa !103
  %29 = call i32 (ptr, ptr, ...) @fprintf(ptr noundef %28, ptr noundef @.str.56) #3
  br label %30

30:                                               ; preds = %27, %10
  call void @llvm.lifetime.end.p0(i64 8, ptr %5) #3
  store i32 0, ptr %4, align 4
  br label %31

31:                                               ; preds = %30, %9
  call void @llvm.lifetime.end.p0(i64 8, ptr %3) #3
  %32 = load i32, ptr %4, align 4
  switch i32 %32, label %34 [
    i32 0, label %33
    i32 1, label %33
  ]

33:                                               ; preds = %31, %31
  ret void

34:                                               ; preds = %31
  unreachable
}