; Function Attrs: mustprogress uwtable
define internal void @_ZN12_GLOBAL__N_129networking_initial_check_Test8TestBodyEv(ptr nonnull readnone align 8 captures(none) %0) unnamed_addr #4 align 2 {
  %2 = alloca i64, align 8
  %3 = tail call ptr @curl_easy_init()
  %.not = icmp eq ptr %3, null
  br i1 %.not, label %17, label %4

4:                                                ; preds = %1
  %5 = tail call i32 (ptr, i32, ...) @curl_easy_setopt(ptr noundef nonnull %3, i32 noundef 10002, ptr noundef nonnull @.str.54)
  %6 = tail call i32 (ptr, i32, ...) @curl_easy_setopt(ptr noundef nonnull %3, i32 noundef 10007, ptr noundef nonnull @.str.55)
  %7 = tail call i32 (ptr, i32, ...) @curl_easy_setopt(ptr noundef nonnull %3, i32 noundef 20011, ptr noundef nonnull @_ZN12_GLOBAL__N_120noop_curl_write_funcEPvmmS0_)
  %8 = tail call i32 @curl_easy_perform(ptr noundef nonnull %3)
  call void @llvm.lifetime.start.p0(i64 8, ptr nonnull %2) #29
  store i64 0, ptr %2, align 8, !tbaa !10
  %9 = call i32 (ptr, i32, ...) @curl_easy_getinfo(ptr noundef nonnull %3, i32 noundef 2097154, ptr noundef nonnull %2)
  call void @curl_easy_cleanup(ptr noundef nonnull %3)
  %10 = load i64, ptr %2, align 8, !tbaa !10
  %11 = icmp eq i64 %10, 206
  %12 = zext i1 %11 to i8
  store i8 %12, ptr @_ZN12_GLOBAL__N_115networkAccessOKE, align 1, !tbaa !28
  br i1 %11, label %16, label %13

13:                                               ; preds = %4
  %14 = load ptr, ptr @stderr, align 8, !tbaa !30
  %15 = call i64 @fwrite(ptr nonnull @.str.56, i64 26, i64 1, ptr %14) #33
  br label %16

16:                                               ; preds = %13, %4
  call void @llvm.lifetime.end.p0(i64 8, ptr nonnull %2) #29
  br label %17

17:                                               ; preds = %1, %16
  ret void
}